target datalayout = "e-m:e-p270:32:32-p271:32:32-p272:64:64-i64:64-i128:128-f80:128-n8:16:32:64-S128"
target triple = "x86_64-pc-linux-gnu"

%"class.cv::obsensor::IFrameProcessor" = type { ptr }
%"class.cv::obsensor::DepthFrameUnpacker" = type { %"class.cv::obsensor::IFrameProcessor", i32, ptr }

@_ZTVN2cv8obsensor15IFrameProcessorE = linkonce_odr hidden unnamed_addr constant { [5 x ptr] } { [5 x ptr] [ptr null, ptr @_ZTIN2cv8obsensor15IFrameProcessorE, ptr @__cxa_pure_virtual, ptr @_ZN2cv8obsensor15IFrameProcessorD2Ev, ptr @_ZN2cv8obsensor15IFrameProcessorD0Ev] }, comdat, align 8

; Function Attrs: mustprogress nounwind uwtable
define linkonce_odr hidden void @_ZN2cv8obsensor15IFrameProcessorD2Ev(ptr noundef nonnull align 8 dereferenceable(8) %0) unnamed_addr #6 comdat align 2 {
  %2 = alloca ptr, align 8
  store ptr %0, ptr %2, align 8, !tbaa !119
  ret void
}

; Function Attrs: inlinehint mustprogress nounwind uwtable
define linkonce_odr hidden void @_ZN2cv8obsensor15IFrameProcessorC2Ev(ptr noundef nonnull align 8 dereferenceable(8) %0) unnamed_addr #9 comdat align 2 {
  %2 = alloca ptr, align 8
  store ptr %0, ptr %2, align 8, !tbaa !119
  %3 = load ptr, ptr %2, align 8
  store ptr getelementptr inbounds inrange(-16, 24) ({ [5 x ptr] }, ptr @_ZTVN2cv8obsensor15IFrameProcessorE, i32 0, i32 0, i32 2), ptr %3, align 8, !tbaa !95
  ret void
}

; Function Attrs: mustprogress uwtable
define hidden void @_ZN2cv8obsensor18DepthFrameUnpackerC2Ev(ptr noundef nonnull align 8 dereferenceable(24) %0) unnamed_addr #7 align 2 personality ptr @__gxx_personality_v0 {
  %2 = alloca ptr, align 8
  %3 = alloca ptr, align 8
  %4 = alloca i32, align 4
  store ptr %0, ptr %2, align 8, !tbaa !128
  %5 = load ptr, ptr %2, align 8
  call void @_ZN2cv8obsensor15IFrameProcessorC2Ev(ptr noundef nonnull align 8 dereferenceable(8) %5) #3
  store ptr getelementptr inbounds inrange(-16, 24) ({ [5 x ptr] }, ptr @_ZTVN2cv8obsensor18DepthFrameUnpackerE, i32 0, i32 0, i32 2), ptr %5, align 8, !tbaa !95
  %6 = getelementptr inbounds nuw %"class.cv::obsensor::DepthFrameUnpacker", ptr %5, i32 0, i32 1
  store i32 2048000, ptr %6, align 8, !tbaa !130
  %7 = getelementptr inbounds nuw %"class.cv::obsensor::DepthFrameUnpacker", ptr %5, i32 0, i32 1
  %8 = load i32, ptr %7, align 8, !tbaa !130
  %9 = zext i32 %8 to i64
  %10 = invoke noalias noundef nonnull ptr @_Znam(i64 noundef %9) #23
          to label %11 unwind label %13

11:                                               ; preds = %1
  %12 = getelementptr inbounds nuw %"class.cv::obsensor::DepthFrameUnpacker", ptr %5, i32 0, i32 2
  store ptr %10, ptr %12, align 8, !tbaa !132
  ret void

13:                                               ; preds = %1
  %14 = landingpad { ptr, i32 }
          cleanup
  %15 = extractvalue { ptr, i32 } %14, 0
  store ptr %15, ptr %3, align 8
  %16 = extractvalue { ptr, i32 } %14, 1
  store i32 %16, ptr %4, align 4
  call void @_ZN2cv8obsensor15IFrameProcessorD2Ev(ptr noundef nonnull align 8 dereferenceable(8) %5) #3
  br label %17

17:                                               ; preds = %13
  %18 = load ptr, ptr %3, align 8
  %19 = load i32, ptr %4, align 4
  %20 = insertvalue { ptr, i32 } poison, ptr %18, 0
  %21 = insertvalue { ptr, i32 } %20, i32 %19, 1
  resume { ptr, i32 } %21
}