; Function Attrs: mustprogress uwtable
define hidden void @_ZN2cv8obsensor18DepthFrameUnpackerC2Ev(ptr noundef nonnull writeonly align 8 captures(none) dereferenceable(24) initializes((0, 12), (16, 24)) %0) unnamed_addr #5 align 2 personality ptr @__gxx_personality_v0 {
  store ptr getelementptr inbounds nuw inrange(-16, 24) (i8, ptr @_ZTVN2cv8obsensor18DepthFrameUnpackerE, i64 16), ptr %0, align 8, !tbaa !61
  %2 = getelementptr inbounds nuw i8, ptr %0, i64 8
  store i32 2048000, ptr %2, align 8, !tbaa !101
  %3 = tail call noalias noundef nonnull dereferenceable(2048000) ptr @_Znam(i64 noundef 2048000) #27
  %4 = getelementptr inbounds nuw i8, ptr %0, i64 16
  store ptr %3, ptr %4, align 8, !tbaa !103
  ret void
}